; Function Attrs: nounwind uwtable
define dso_local i32 @ap_php_slprintf(ptr noundef captures(address) %0, i64 noundef %1, ptr noundef %2, ...) local_unnamed_addr #2 {
  %4 = alloca [1 x %struct.__va_list_tag], align 16
  call void @llvm.lifetime.start.p0(i64 24, ptr nonnull %4) #17
  call void @llvm.va_start.p0(ptr nonnull %4)
  %5 = call fastcc i64 @strx_printv(ptr noundef %0, i64 noundef %1, ptr noundef %2, ptr noundef nonnull %4)
  call void @llvm.va_end.p0(ptr nonnull %4)
  %.not = icmp ult i64 %5, %1
  br i1 %.not, label %9, label %6

6:                                                ; preds = %3
  %7 = add i64 %1, -1
  %8 = getelementptr inbounds nuw i8, ptr %0, i64 %7
  store i8 0, ptr %8, align 1, !tbaa !8
  br label %9

9:                                                ; preds = %6, %3
  %.0 = phi i64 [ %7, %6 ], [ %5, %3 ]
  %10 = trunc i64 %.0 to i32
  call void @llvm.lifetime.end.p0(i64 24, ptr nonnull %4) #17
  ret i32 %10
}